target datalayout = "e-m:e-p270:32:32-p271:32:32-p272:64:64-i64:64-i128:128-f80:128-n8:16:32:64-S128"
target triple = "x86_64-pc-linux-gnu"

%struct.ossl_namemap_st = type { i8, ptr, ptr, ptr, i32 }
%struct.namenum_key_st = type { %struct.ht_key_header_st, %struct.anon }
%struct.ht_key_header_st = type { i64, ptr }
%struct.anon = type { [64 x i8] }
%struct.ht_value_st = type { ptr, ptr, %struct.ht_key_header_st }

@.str = private unnamed_addr constant [33 x i8] c"../openssl/crypto/core_namemap.c\00", align 1

; Function Attrs: nounwind uwtable
define internal void @ossl_ht_strcase(ptr noundef %0, ptr noundef %1, i32 noundef %2) #0 {
  %4 = alloca ptr, align 8
  %5 = alloca ptr, align 8
  %6 = alloca i32, align 4
  %7 = alloca i32, align 4
  %8 = alloca i64, align 8
  %9 = alloca i32, align 4
  store ptr %0, ptr %4, align 8, !tbaa !27
  store ptr %1, ptr %5, align 8, !tbaa !27
  store i32 %2, ptr %6, align 4, !tbaa !21
  call void @llvm.lifetime.start.p0(i64 4, ptr %7) #7
  call void @llvm.lifetime.start.p0(i64 8, ptr %8) #7
  store i64 -33, ptr %8, align 8, !tbaa !40
  %10 = load ptr, ptr %5, align 8, !tbaa !27
  %11 = icmp eq ptr %10, null
  br i1 %11, label %12, label %13

12:                                               ; preds = %3
  store i32 1, ptr %9, align 4
  br label %45

13:                                               ; preds = %3
  store i32 0, ptr %7, align 4, !tbaa !21
  br label %14

14:                                               ; preds = %41, %13
  %15 = load ptr, ptr %5, align 8, !tbaa !27
  %16 = load i32, ptr %7, align 4, !tbaa !21
  %17 = sext i32 %16 to i64
  %18 = getelementptr inbounds i8, ptr %15, i64 %17
  %19 = load i8, ptr %18, align 1, !tbaa !41
  %20 = sext i8 %19 to i32
  %21 = icmp ne i32 %20, 0
  br i1 %21, label %22, label %26

22:                                               ; preds = %14
  %23 = load i32, ptr %7, align 4, !tbaa !21
  %24 = load i32, ptr %6, align 4, !tbaa !21
  %25 = icmp slt i32 %23, %24
  br label %26

26:                                               ; preds = %22, %14
  %27 = phi i1 [ false, %14 ], [ %25, %22 ]
  br i1 %27, label %28, label %44

28:                                               ; preds = %26
  %29 = load ptr, ptr %5, align 8, !tbaa !27
  %30 = load i32, ptr %7, align 4, !tbaa !21
  %31 = sext i32 %30 to i64
  %32 = getelementptr inbounds i8, ptr %29, i64 %31
  %33 = load i8, ptr %32, align 1, !tbaa !41
  %34 = sext i8 %33 to i64
  %35 = and i64 -33, %34
  %36 = trunc i64 %35 to i8
  %37 = load ptr, ptr %4, align 8, !tbaa !27
  %38 = load i32, ptr %7, align 4, !tbaa !21
  %39 = sext i32 %38 to i64
  %40 = getelementptr inbounds i8, ptr %37, i64 %39
  store i8 %36, ptr %40, align 1, !tbaa !41
  br label %41

41:                                               ; preds = %28
  %42 = load i32, ptr %7, align 4, !tbaa !21
  %43 = add nsw i32 %42, 1
  store i32 %43, ptr %7, align 4, !tbaa !21
  br label %14, !llvm.loop !42

44:                                               ; preds = %26
  store i32 0, ptr %9, align 4
  br label %45

45:                                               ; preds = %44, %12
  call void @llvm.lifetime.end.p0(i64 8, ptr %8) #7
  call void @llvm.lifetime.end.p0(i64 4, ptr %7) #7
  %46 = load i32, ptr %9, align 4
  switch i32 %46, label %48 [
    i32 0, label %47
    i32 1, label %47
  ]

47:                                               ; preds = %45, %45
  ret void

48:                                               ; preds = %45
  unreachable
}

; Function Attrs: nounwind uwtable
define i32 @ossl_namemap_name2num(ptr noundef %0, ptr noundef %1) #0 {
  %3 = alloca i32, align 4
  %4 = alloca ptr, align 8
  %5 = alloca ptr, align 8
  %6 = alloca i32, align 4
  %7 = alloca ptr, align 8
  %8 = alloca %struct.namenum_key_st, align 8
  %9 = alloca i32, align 4
  store ptr %0, ptr %4, align 8, !tbaa !8
  store ptr %1, ptr %5, align 8, !tbaa !27
  call void @llvm.lifetime.start.p0(i64 4, ptr %6) #7
  store i32 0, ptr %6, align 4, !tbaa !21
  call void @llvm.lifetime.start.p0(i64 8, ptr %7) #7
  call void @llvm.lifetime.start.p0(i64 80, ptr %8) #7
  %10 = load ptr, ptr %4, align 8, !tbaa !8
  %11 = icmp eq ptr %10, null
  br i1 %11, label %12, label %14

12:                                               ; preds = %2
  %13 = call ptr @ossl_namemap_stored(ptr noundef null)
  store ptr %13, ptr %4, align 8, !tbaa !8
  br label %14

14:                                               ; preds = %12, %2
  %15 = load ptr, ptr %4, align 8, !tbaa !8
  %16 = icmp eq ptr %15, null
  br i1 %16, label %17, label %18

17:                                               ; preds = %14
  store i32 0, ptr %3, align 4
  store i32 1, ptr %9, align 4
  br label %49

18:                                               ; preds = %14
  br label %19

19:                                               ; preds = %18
  call void @llvm.memset.p0.i64(ptr align 8 %8, i8 0, i64 80, i1 false)
  %20 = getelementptr inbounds nuw %struct.namenum_key_st, ptr %8, i32 0, i32 0
  %21 = getelementptr inbounds nuw %struct.ht_key_header_st, ptr %20, i32 0, i32 0
  store i64 64, ptr %21, align 8, !tbaa !29
  %22 = getelementptr inbounds nuw i8, ptr %8, i64 16
  %23 = getelementptr inbounds nuw %struct.namenum_key_st, ptr %8, i32 0, i32 0
  %24 = getelementptr inbounds nuw %struct.ht_key_header_st, ptr %23, i32 0, i32 1
  store ptr %22, ptr %24, align 8, !tbaa !33
  br label %25

25:                                               ; preds = %19
  br label %26

26:                                               ; preds = %25
  br label %27

27:                                               ; preds = %26
  %28 = getelementptr inbounds nuw %struct.namenum_key_st, ptr %8, i32 0, i32 1
  %29 = getelementptr inbounds nuw %struct.anon, ptr %28, i32 0, i32 0
  %30 = getelementptr inbounds [64 x i8], ptr %29, i64 0, i64 0
  %31 = load ptr, ptr %5, align 8, !tbaa !27
  call void @ossl_ht_strcase(ptr noundef %30, ptr noundef %31, i32 noundef 63)
  br label %32

32:                                               ; preds = %27
  br label %33

33:                                               ; preds = %32
  %34 = load ptr, ptr %4, align 8, !tbaa !8
  %35 = getelementptr inbounds nuw %struct.ossl_namemap_st, ptr %34, i32 0, i32 1
  %36 = load ptr, ptr %35, align 8, !tbaa !18
  %37 = getelementptr inbounds nuw %struct.namenum_key_st, ptr %8, i32 0, i32 0
  %38 = call ptr @ossl_ht_get(ptr noundef %36, ptr noundef %37)
  store ptr %38, ptr %7, align 8, !tbaa !34
  %39 = load ptr, ptr %7, align 8, !tbaa !34
  %40 = icmp ne ptr %39, null
  br i1 %40, label %41, label %47

41:                                               ; preds = %33
  %42 = load ptr, ptr %7, align 8, !tbaa !34
  %43 = getelementptr inbounds nuw %struct.ht_value_st, ptr %42, i32 0, i32 0
  %44 = load ptr, ptr %43, align 8, !tbaa !36
  %45 = ptrtoint ptr %44 to i64
  %46 = trunc i64 %45 to i32
  store i32 %46, ptr %6, align 4, !tbaa !21
  br label %47

47:                                               ; preds = %41, %33
  %48 = load i32, ptr %6, align 4, !tbaa !21
  store i32 %48, ptr %3, align 4
  store i32 1, ptr %9, align 4
  br label %49

49:                                               ; preds = %47, %17
  call void @llvm.lifetime.end.p0(i64 80, ptr %8) #7
  call void @llvm.lifetime.end.p0(i64 8, ptr %7) #7
  call void @llvm.lifetime.end.p0(i64 4, ptr %6) #7
  %50 = load i32, ptr %3, align 4
  ret i32 %50
}

; Function Attrs: nounwind uwtable
define i32 @ossl_namemap_name2num_n(ptr noundef %0, ptr noundef %1, i64 noundef %2) #0 {
  %4 = alloca i32, align 4
  %5 = alloca ptr, align 8
  %6 = alloca ptr, align 8
  %7 = alloca i64, align 8
  %8 = alloca ptr, align 8
  %9 = alloca i32, align 4
  %10 = alloca i32, align 4
  store ptr %0, ptr %5, align 8, !tbaa !8
  store ptr %1, ptr %6, align 8, !tbaa !27
  store i64 %2, ptr %7, align 8, !tbaa !40
  call void @llvm.lifetime.start.p0(i64 8, ptr %8) #7
  call void @llvm.lifetime.start.p0(i64 4, ptr %9) #7
  %11 = load ptr, ptr %6, align 8, !tbaa !27
  %12 = icmp eq ptr %11, null
  br i1 %12, label %18, label %13

13:                                               ; preds = %3
  %14 = load ptr, ptr %6, align 8, !tbaa !27
  %15 = load i64, ptr %7, align 8, !tbaa !40
  %16 = call noalias ptr @CRYPTO_strndup(ptr noundef %14, i64 noundef %15, ptr noundef @.str, i32 noundef 173)
  store ptr %16, ptr %8, align 8, !tbaa !27
  %17 = icmp eq ptr %16, null
  br i1 %17, label %18, label %19

18:                                               ; preds = %13, %3
  store i32 0, ptr %4, align 4
  store i32 1, ptr %10, align 4
  br label %25

19:                                               ; preds = %13
  %20 = load ptr, ptr %5, align 8, !tbaa !8
  %21 = load ptr, ptr %8, align 8, !tbaa !27
  %22 = call i32 @ossl_namemap_name2num(ptr noundef %20, ptr noundef %21)
  store i32 %22, ptr %9, align 4, !tbaa !21
  %23 = load ptr, ptr %8, align 8, !tbaa !27
  call void @CRYPTO_free(ptr noundef %23, ptr noundef @.str, i32 noundef 177)
  %24 = load i32, ptr %9, align 4, !tbaa !21
  store i32 %24, ptr %4, align 4
  store i32 1, ptr %10, align 4
  br label %25

25:                                               ; preds = %19, %18
  call void @llvm.lifetime.end.p0(i64 4, ptr %9) #7
  call void @llvm.lifetime.end.p0(i64 8, ptr %8) #7
  %26 = load i32, ptr %4, align 4
  ret i32 %26
}