; Function Attrs: nounwind uwtable
define i32 @ossl_namemap_name2num_n(ptr noundef readonly captures(address_is_null) %0, ptr noundef %1, i64 noundef %2) local_unnamed_addr #0 {
  %4 = alloca %struct.namenum_key_st, align 8
  %5 = icmp eq ptr %1, null
  br i1 %5, label %32, label %6

6:                                                ; preds = %3
  %7 = tail call noalias ptr @CRYPTO_strndup(ptr noundef nonnull %1, i64 noundef %2, ptr noundef nonnull @.str, i32 noundef 173) #6
  %8 = icmp eq ptr %7, null
  br i1 %8, label %32, label %9

9:                                                ; preds = %6
  call void @llvm.lifetime.start.p0(i64 80, ptr nonnull %4) #6
  %10 = icmp eq ptr %0, null
  br i1 %10, label %11, label %.preheader.i.i

11:                                               ; preds = %9
  %12 = tail call ptr @ossl_namemap_stored(ptr noundef null)
  %13 = icmp eq ptr %12, null
  br i1 %13, label %ossl_namemap_name2num.exit, label %.preheader.i.i

.preheader.i.i:                                   ; preds = %9, %11
  %.0812.i = phi ptr [ %12, %11 ], [ %0, %9 ]
  %14 = getelementptr inbounds nuw i8, ptr %4, i64 16
  call void @llvm.memset.p0.i64(ptr noundef nonnull align 8 dereferenceable(80) %14, i8 0, i64 64, i1 false)
  store i64 64, ptr %4, align 8, !tbaa !19
  %15 = getelementptr inbounds nuw i8, ptr %4, i64 8
  store ptr %14, ptr %15, align 8, !tbaa !24
  %16 = load i8, ptr %7, align 1, !tbaa !25
  %.not.i.i = icmp eq i8 %16, 0
  br i1 %.not.i.i, label %ossl_ht_strcase.exit.i, label %.lr.ph.i.i

.lr.ph.i.i:                                       ; preds = %.preheader.i.i, %.lr.ph.i.i
  %indvars.iv.i.i = phi i64 [ %indvars.iv.next.i.i, %.lr.ph.i.i ], [ 0, %.preheader.i.i ]
  %17 = phi i8 [ %21, %.lr.ph.i.i ], [ %16, %.preheader.i.i ]
  %18 = and i8 %17, -33
  %19 = getelementptr inbounds nuw i8, ptr %14, i64 %indvars.iv.i.i
  store i8 %18, ptr %19, align 1, !tbaa !25
  %indvars.iv.next.i.i = add nuw nsw i64 %indvars.iv.i.i, 1
  %20 = getelementptr inbounds nuw i8, ptr %7, i64 %indvars.iv.next.i.i
  %21 = load i8, ptr %20, align 1, !tbaa !25
  %22 = icmp ne i8 %21, 0
  %23 = icmp samesign ult i64 %indvars.iv.i.i, 62
  %24 = select i1 %22, i1 %23, i1 false
  br i1 %24, label %.lr.ph.i.i, label %ossl_ht_strcase.exit.i, !llvm.loop !26

ossl_ht_strcase.exit.i:                           ; preds = %.lr.ph.i.i, %.preheader.i.i
  %25 = getelementptr inbounds nuw i8, ptr %.0812.i, i64 8
  %26 = load ptr, ptr %25, align 8, !tbaa !15
  %27 = call ptr @ossl_ht_get(ptr noundef %26, ptr noundef nonnull %4) #6
  %.not.i = icmp eq ptr %27, null
  br i1 %.not.i, label %ossl_namemap_name2num.exit, label %28

28:                                               ; preds = %ossl_ht_strcase.exit.i
  %29 = load ptr, ptr %27, align 8, !tbaa !27
  %30 = ptrtoint ptr %29 to i64
  %31 = trunc i64 %30 to i32
  br label %ossl_namemap_name2num.exit

ossl_namemap_name2num.exit:                       ; preds = %11, %ossl_ht_strcase.exit.i, %28
  %.0.i = phi i32 [ 0, %11 ], [ %31, %28 ], [ 0, %ossl_ht_strcase.exit.i ]
  call void @llvm.lifetime.end.p0(i64 80, ptr nonnull %4) #6
  call void @CRYPTO_free(ptr noundef nonnull %7, ptr noundef nonnull @.str, i32 noundef 177) #6
  br label %32

32:                                               ; preds = %3, %6, %ossl_namemap_name2num.exit
  %.0 = phi i32 [ %.0.i, %ossl_namemap_name2num.exit ], [ 0, %6 ], [ 0, %3 ]
  ret i32 %.0
}